target datalayout = "e-m:e-p270:32:32-p271:32:32-p272:64:64-i64:64-i128:128-f80:128-n8:16:32:64-S128"
target triple = "x86_64-pc-linux-gnu"

%struct.ForEachState = type { ptr, i32 }
%struct.List = type { i32, i32, i32, ptr, [0 x %union.ListCell] }
%union.ListCell = type { ptr }
%struct.RelOptInfo = type { i32, i32, ptr, double, i8, i8, i8, ptr, ptr, ptr, ptr, ptr, ptr, ptr, ptr, ptr, ptr, i32, i32, i32, i16, i16, ptr, ptr, ptr, ptr, ptr, ptr, ptr, ptr, i32, double, double, ptr, ptr, ptr, i32, i32, i32, i32, i8, ptr, ptr, ptr, ptr, ptr, %struct.QualCost, i32, ptr, i8, i8, ptr, ptr, ptr, ptr, i32, ptr, i8, ptr, ptr, ptr, ptr, ptr, ptr }
%struct.QualCost = type { double, double }
%struct.Node = type { i32 }
%struct.RestrictInfo = type { i32, ptr, i8, i8, i8, i8, i8, i8, i32, i32, i32, ptr, ptr, ptr, ptr, ptr, ptr, ptr, i32, ptr, %struct.QualCost, double, double, ptr, ptr, ptr, ptr, ptr, ptr, i8, i32, double, double, double, double, i32, i32 }
%struct.ParamPathInfo = type { i32, ptr, double, ptr, ptr }

; Function Attrs: inlinehint nounwind uwtable
define internal ptr @newNode(i64 noundef %0, i32 noundef %1) #2 {
  %3 = alloca i64, align 8
  %4 = alloca i32, align 4
  %5 = alloca ptr, align 8
  store i64 %0, ptr %3, align 8
  store i32 %1, ptr %4, align 4
  call void @llvm.lifetime.start.p0(i64 8, ptr %5) #6
  %6 = load i64, ptr %3, align 8
  %7 = call ptr @palloc0(i64 noundef %6)
  store ptr %7, ptr %5, align 8
  %8 = load i32, ptr %4, align 4
  %9 = load ptr, ptr %5, align 8
  %10 = getelementptr inbounds nuw %struct.Node, ptr %9, i32 0, i32 0
  store i32 %8, ptr %10, align 4
  %11 = load ptr, ptr %5, align 8
  call void @llvm.lifetime.end.p0(i64 8, ptr %5) #6
  ret ptr %11
}

; Function Attrs: nounwind uwtable
define dso_local ptr @find_param_path_info(ptr noundef %0, ptr noundef %1) #0 {
  %3 = alloca ptr, align 8
  %4 = alloca ptr, align 8
  %5 = alloca ptr, align 8
  %6 = alloca ptr, align 8
  %7 = alloca %struct.ForEachState, align 8
  %8 = alloca i32, align 4
  %9 = alloca ptr, align 8
  store ptr %0, ptr %4, align 8
  store ptr %1, ptr %5, align 8
  call void @llvm.lifetime.start.p0(i64 8, ptr %6) #6
  call void @llvm.lifetime.start.p0(i64 16, ptr %7) #6
  %10 = getelementptr inbounds nuw %struct.ForEachState, ptr %7, i32 0, i32 0
  %11 = load ptr, ptr %4, align 8
  %12 = getelementptr inbounds nuw %struct.RelOptInfo, ptr %11, i32 0, i32 9
  %13 = load ptr, ptr %12, align 8
  store ptr %13, ptr %10, align 8
  %14 = getelementptr inbounds nuw %struct.ForEachState, ptr %7, i32 0, i32 1
  store i32 0, ptr %14, align 8
  %15 = getelementptr i8, ptr %7, i64 12
  call void @llvm.memset.p0.i64(ptr align 4 %15, i8 0, i64 4, i1 false)
  br label %16

16:                                               ; preds = %56, %2
  %17 = getelementptr inbounds nuw %struct.ForEachState, ptr %7, i32 0, i32 0
  %18 = load ptr, ptr %17, align 8
  %19 = icmp ne ptr %18, null
  br i1 %19, label %20, label %37

20:                                               ; preds = %16
  %21 = getelementptr inbounds nuw %struct.ForEachState, ptr %7, i32 0, i32 1
  %22 = load i32, ptr %21, align 8
  %23 = getelementptr inbounds nuw %struct.ForEachState, ptr %7, i32 0, i32 0
  %24 = load ptr, ptr %23, align 8
  %25 = getelementptr inbounds nuw %struct.List, ptr %24, i32 0, i32 1
  %26 = load i32, ptr %25, align 4
  %27 = icmp slt i32 %22, %26
  br i1 %27, label %28, label %37

28:                                               ; preds = %20
  %29 = getelementptr inbounds nuw %struct.ForEachState, ptr %7, i32 0, i32 0
  %30 = load ptr, ptr %29, align 8
  %31 = getelementptr inbounds nuw %struct.List, ptr %30, i32 0, i32 3
  %32 = load ptr, ptr %31, align 8
  %33 = getelementptr inbounds nuw %struct.ForEachState, ptr %7, i32 0, i32 1
  %34 = load i32, ptr %33, align 8
  %35 = sext i32 %34 to i64
  %36 = getelementptr inbounds %union.ListCell, ptr %32, i64 %35
  store ptr %36, ptr %6, align 8
  br label %38

37:                                               ; preds = %20, %16
  store ptr null, ptr %6, align 8
  br label %38

38:                                               ; preds = %37, %28
  %39 = phi i32 [ 1, %28 ], [ 0, %37 ]
  %40 = icmp ne i32 %39, 0
  br i1 %40, label %42, label %41

41:                                               ; preds = %38
  store i32 2, ptr %8, align 4
  br label %60

42:                                               ; preds = %38
  call void @llvm.lifetime.start.p0(i64 8, ptr %9) #6
  %43 = load ptr, ptr %6, align 8
  %44 = load ptr, ptr %43, align 8
  store ptr %44, ptr %9, align 8
  %45 = load ptr, ptr %9, align 8
  %46 = getelementptr inbounds nuw %struct.ParamPathInfo, ptr %45, i32 0, i32 1
  %47 = load ptr, ptr %46, align 8
  %48 = load ptr, ptr %5, align 8
  %49 = call zeroext i1 @bms_equal(ptr noundef %47, ptr noundef %48)
  br i1 %49, label %50, label %52

50:                                               ; preds = %42
  %51 = load ptr, ptr %9, align 8
  store ptr %51, ptr %3, align 8
  store i32 1, ptr %8, align 4
  br label %53

52:                                               ; preds = %42
  store i32 0, ptr %8, align 4
  br label %53

53:                                               ; preds = %52, %50
  call void @llvm.lifetime.end.p0(i64 8, ptr %9) #6
  %54 = load i32, ptr %8, align 4
  switch i32 %54, label %60 [
    i32 0, label %55
  ]

55:                                               ; preds = %53
  br label %56

56:                                               ; preds = %55
  %57 = getelementptr inbounds nuw %struct.ForEachState, ptr %7, i32 0, i32 1
  %58 = load i32, ptr %57, align 8
  %59 = add i32 %58, 1
  store i32 %59, ptr %57, align 8
  br label %16, !llvm.loop !18

60:                                               ; preds = %53, %41
  call void @llvm.lifetime.end.p0(i64 16, ptr %7) #6
  %61 = load i32, ptr %8, align 4
  switch i32 %61, label %63 [
    i32 2, label %62
  ]

62:                                               ; preds = %60
  store ptr null, ptr %3, align 8
  store i32 1, ptr %8, align 4
  br label %63

63:                                               ; preds = %62, %60
  call void @llvm.lifetime.end.p0(i64 8, ptr %6) #6
  %64 = load ptr, ptr %3, align 8
  ret ptr %64
}

; Function Attrs: nounwind uwtable
define dso_local ptr @get_baserel_parampathinfo(ptr noundef %0, ptr noundef %1, ptr noundef %2) #0 {
  %4 = alloca ptr, align 8
  %5 = alloca ptr, align 8
  %6 = alloca ptr, align 8
  %7 = alloca ptr, align 8
  %8 = alloca ptr, align 8
  %9 = alloca ptr, align 8
  %10 = alloca ptr, align 8
  %11 = alloca ptr, align 8
  %12 = alloca ptr, align 8
  %13 = alloca double, align 8
  %14 = alloca ptr, align 8
  %15 = alloca i32, align 4
  %16 = alloca %struct.ForEachState, align 8
  %17 = alloca ptr, align 8
  %18 = alloca %struct.ForEachState, align 8
  %19 = alloca ptr, align 8
  store ptr %0, ptr %5, align 8
  store ptr %1, ptr %6, align 8
  store ptr %2, ptr %7, align 8
  call void @llvm.lifetime.start.p0(i64 8, ptr %8) #6
  call void @llvm.lifetime.start.p0(i64 8, ptr %9) #6
  call void @llvm.lifetime.start.p0(i64 8, ptr %10) #6
  call void @llvm.lifetime.start.p0(i64 8, ptr %11) #6
  call void @llvm.lifetime.start.p0(i64 8, ptr %12) #6
  call void @llvm.lifetime.start.p0(i64 8, ptr %13) #6
  call void @llvm.lifetime.start.p0(i64 8, ptr %14) #6
  %20 = load ptr, ptr %7, align 8
  %21 = icmp eq ptr %20, null
  br i1 %21, label %22, label %23

22:                                               ; preds = %3
  store ptr null, ptr %4, align 8
  store i32 1, ptr %15, align 4
  br label %163

23:                                               ; preds = %3
  %24 = load ptr, ptr %6, align 8
  %25 = load ptr, ptr %7, align 8
  %26 = call ptr @find_param_path_info(ptr noundef %24, ptr noundef %25)
  store ptr %26, ptr %8, align 8
  %27 = icmp ne ptr %26, null
  br i1 %27, label %28, label %30

28:                                               ; preds = %23
  %29 = load ptr, ptr %8, align 8
  store ptr %29, ptr %4, align 8
  store i32 1, ptr %15, align 4
  br label %163

30:                                               ; preds = %23
  %31 = load ptr, ptr %6, align 8
  %32 = getelementptr inbounds nuw %struct.RelOptInfo, ptr %31, i32 0, i32 2
  %33 = load ptr, ptr %32, align 8
  %34 = load ptr, ptr %7, align 8
  %35 = call ptr @bms_union(ptr noundef %33, ptr noundef %34)
  store ptr %35, ptr %9, align 8
  store ptr null, ptr %10, align 8
  call void @llvm.lifetime.start.p0(i64 16, ptr %16) #6
  %36 = getelementptr inbounds nuw %struct.ForEachState, ptr %16, i32 0, i32 0
  %37 = load ptr, ptr %6, align 8
  %38 = getelementptr inbounds nuw %struct.RelOptInfo, ptr %37, i32 0, i32 48
  %39 = load ptr, ptr %38, align 8
  store ptr %39, ptr %36, align 8
  %40 = getelementptr inbounds nuw %struct.ForEachState, ptr %16, i32 0, i32 1
  store i32 0, ptr %40, align 8
  %41 = getelementptr i8, ptr %16, i64 12
  call void @llvm.memset.p0.i64(ptr align 4 %41, i8 0, i64 4, i1 false)
  br label %42

42:                                               ; preds = %82, %30
  %43 = getelementptr inbounds nuw %struct.ForEachState, ptr %16, i32 0, i32 0
  %44 = load ptr, ptr %43, align 8
  %45 = icmp ne ptr %44, null
  br i1 %45, label %46, label %63

46:                                               ; preds = %42
  %47 = getelementptr inbounds nuw %struct.ForEachState, ptr %16, i32 0, i32 1
  %48 = load i32, ptr %47, align 8
  %49 = getelementptr inbounds nuw %struct.ForEachState, ptr %16, i32 0, i32 0
  %50 = load ptr, ptr %49, align 8
  %51 = getelementptr inbounds nuw %struct.List, ptr %50, i32 0, i32 1
  %52 = load i32, ptr %51, align 4
  %53 = icmp slt i32 %48, %52
  br i1 %53, label %54, label %63

54:                                               ; preds = %46
  %55 = getelementptr inbounds nuw %struct.ForEachState, ptr %16, i32 0, i32 0
  %56 = load ptr, ptr %55, align 8
  %57 = getelementptr inbounds nuw %struct.List, ptr %56, i32 0, i32 3
  %58 = load ptr, ptr %57, align 8
  %59 = getelementptr inbounds nuw %struct.ForEachState, ptr %16, i32 0, i32 1
  %60 = load i32, ptr %59, align 8
  %61 = sext i32 %60 to i64
  %62 = getelementptr inbounds %union.ListCell, ptr %58, i64 %61
  store ptr %62, ptr %14, align 8
  br label %64

63:                                               ; preds = %46, %42
  store ptr null, ptr %14, align 8
  br label %64

64:                                               ; preds = %63, %54
  %65 = phi i32 [ 1, %54 ], [ 0, %63 ]
  %66 = icmp ne i32 %65, 0
  br i1 %66, label %68, label %67

67:                                               ; preds = %64
  store i32 2, ptr %15, align 4
  call void @llvm.lifetime.end.p0(i64 16, ptr %16) #6
  br label %86

68:                                               ; preds = %64
  call void @llvm.lifetime.start.p0(i64 8, ptr %17) #6
  %69 = load ptr, ptr %14, align 8
  %70 = load ptr, ptr %69, align 8
  store ptr %70, ptr %17, align 8
  %71 = load ptr, ptr %17, align 8
  %72 = load ptr, ptr %6, align 8
  %73 = getelementptr inbounds nuw %struct.RelOptInfo, ptr %72, i32 0, i32 2
  %74 = load ptr, ptr %73, align 8
  %75 = load ptr, ptr %9, align 8
  %76 = call zeroext i1 @join_clause_is_movable_into(ptr noundef %71, ptr noundef %74, ptr noundef %75)
  br i1 %76, label %77, label %81

77:                                               ; preds = %68
  %78 = load ptr, ptr %10, align 8
  %79 = load ptr, ptr %17, align 8
  %80 = call ptr @lappend(ptr noundef %78, ptr noundef %79)
  store ptr %80, ptr %10, align 8
  br label %81

81:                                               ; preds = %77, %68
  call void @llvm.lifetime.end.p0(i64 8, ptr %17) #6
  br label %82

82:                                               ; preds = %81
  %83 = getelementptr inbounds nuw %struct.ForEachState, ptr %16, i32 0, i32 1
  %84 = load i32, ptr %83, align 8
  %85 = add i32 %84, 1
  store i32 %85, ptr %83, align 8
  br label %42, !llvm.loop !16

86:                                               ; preds = %67
  %87 = load ptr, ptr %5, align 8
  %88 = load ptr, ptr %9, align 8
  %89 = load ptr, ptr %7, align 8
  %90 = load ptr, ptr %6, align 8
  %91 = call ptr @generate_join_implied_equalities(ptr noundef %87, ptr noundef %88, ptr noundef %89, ptr noundef %90, ptr noundef null)
  store ptr %91, ptr %11, align 8
  %92 = load ptr, ptr %10, align 8
  %93 = load ptr, ptr %11, align 8
  %94 = call ptr @list_concat(ptr noundef %92, ptr noundef %93)
  store ptr %94, ptr %10, align 8
  store ptr null, ptr %12, align 8
  call void @llvm.lifetime.start.p0(i64 16, ptr %18) #6
  %95 = getelementptr inbounds nuw %struct.ForEachState, ptr %18, i32 0, i32 0
  %96 = load ptr, ptr %10, align 8
  store ptr %96, ptr %95, align 8
  %97 = getelementptr inbounds nuw %struct.ForEachState, ptr %18, i32 0, i32 1
  store i32 0, ptr %97, align 8
  %98 = getelementptr i8, ptr %18, i64 12
  call void @llvm.memset.p0.i64(ptr align 4 %98, i8 0, i64 4, i1 false)
  br label %99

99:                                               ; preds = %133, %86
  %100 = getelementptr inbounds nuw %struct.ForEachState, ptr %18, i32 0, i32 0
  %101 = load ptr, ptr %100, align 8
  %102 = icmp ne ptr %101, null
  br i1 %102, label %103, label %120

103:                                              ; preds = %99
  %104 = getelementptr inbounds nuw %struct.ForEachState, ptr %18, i32 0, i32 1
  %105 = load i32, ptr %104, align 8
  %106 = getelementptr inbounds nuw %struct.ForEachState, ptr %18, i32 0, i32 0
  %107 = load ptr, ptr %106, align 8
  %108 = getelementptr inbounds nuw %struct.List, ptr %107, i32 0, i32 1
  %109 = load i32, ptr %108, align 4
  %110 = icmp slt i32 %105, %109
  br i1 %110, label %111, label %120

111:                                              ; preds = %103
  %112 = getelementptr inbounds nuw %struct.ForEachState, ptr %18, i32 0, i32 0
  %113 = load ptr, ptr %112, align 8
  %114 = getelementptr inbounds nuw %struct.List, ptr %113, i32 0, i32 3
  %115 = load ptr, ptr %114, align 8
  %116 = getelementptr inbounds nuw %struct.ForEachState, ptr %18, i32 0, i32 1
  %117 = load i32, ptr %116, align 8
  %118 = sext i32 %117 to i64
  %119 = getelementptr inbounds %union.ListCell, ptr %115, i64 %118
  store ptr %119, ptr %14, align 8
  br label %121

120:                                              ; preds = %103, %99
  store ptr null, ptr %14, align 8
  br label %121

121:                                              ; preds = %120, %111
  %122 = phi i32 [ 1, %111 ], [ 0, %120 ]
  %123 = icmp ne i32 %122, 0
  br i1 %123, label %125, label %124

124:                                              ; preds = %121
  store i32 5, ptr %15, align 4
  call void @llvm.lifetime.end.p0(i64 16, ptr %18) #6
  br label %137

125:                                              ; preds = %121
  call void @llvm.lifetime.start.p0(i64 8, ptr %19) #6
  %126 = load ptr, ptr %14, align 8
  %127 = load ptr, ptr %126, align 8
  store ptr %127, ptr %19, align 8
  %128 = load ptr, ptr %12, align 8
  %129 = load ptr, ptr %19, align 8
  %130 = getelementptr inbounds nuw %struct.RestrictInfo, ptr %129, i32 0, i32 18
  %131 = load i32, ptr %130, align 8
  %132 = call ptr @bms_add_member(ptr noundef %128, i32 noundef %131)
  store ptr %132, ptr %12, align 8
  call void @llvm.lifetime.end.p0(i64 8, ptr %19) #6
  br label %133

133:                                              ; preds = %125
  %134 = getelementptr inbounds nuw %struct.ForEachState, ptr %18, i32 0, i32 1
  %135 = load i32, ptr %134, align 8
  %136 = add i32 %135, 1
  store i32 %136, ptr %134, align 8
  br label %99, !llvm.loop !17

137:                                              ; preds = %124
  %138 = load ptr, ptr %5, align 8
  %139 = load ptr, ptr %6, align 8
  %140 = load ptr, ptr %10, align 8
  %141 = call double @get_parameterized_baserel_size(ptr noundef %138, ptr noundef %139, ptr noundef %140)
  store double %141, ptr %13, align 8
  %142 = call ptr @newNode(i64 noundef 40, i32 noundef 277)
  store ptr %142, ptr %8, align 8
  %143 = load ptr, ptr %7, align 8
  %144 = load ptr, ptr %8, align 8
  %145 = getelementptr inbounds nuw %struct.ParamPathInfo, ptr %144, i32 0, i32 1
  store ptr %143, ptr %145, align 8
  %146 = load double, ptr %13, align 8
  %147 = load ptr, ptr %8, align 8
  %148 = getelementptr inbounds nuw %struct.ParamPathInfo, ptr %147, i32 0, i32 2
  store double %146, ptr %148, align 8
  %149 = load ptr, ptr %10, align 8
  %150 = load ptr, ptr %8, align 8
  %151 = getelementptr inbounds nuw %struct.ParamPathInfo, ptr %150, i32 0, i32 3
  store ptr %149, ptr %151, align 8
  %152 = load ptr, ptr %12, align 8
  %153 = load ptr, ptr %8, align 8
  %154 = getelementptr inbounds nuw %struct.ParamPathInfo, ptr %153, i32 0, i32 4
  store ptr %152, ptr %154, align 8
  %155 = load ptr, ptr %6, align 8
  %156 = getelementptr inbounds nuw %struct.RelOptInfo, ptr %155, i32 0, i32 9
  %157 = load ptr, ptr %156, align 8
  %158 = load ptr, ptr %8, align 8
  %159 = call ptr @lappend(ptr noundef %157, ptr noundef %158)
  %160 = load ptr, ptr %6, align 8
  %161 = getelementptr inbounds nuw %struct.RelOptInfo, ptr %160, i32 0, i32 9
  store ptr %159, ptr %161, align 8
  %162 = load ptr, ptr %8, align 8
  store ptr %162, ptr %4, align 8
  store i32 1, ptr %15, align 4
  br label %163

163:                                              ; preds = %137, %28, %22
  call void @llvm.lifetime.end.p0(i64 8, ptr %14) #6
  call void @llvm.lifetime.end.p0(i64 8, ptr %13) #6
  call void @llvm.lifetime.end.p0(i64 8, ptr %12) #6
  call void @llvm.lifetime.end.p0(i64 8, ptr %11) #6
  call void @llvm.lifetime.end.p0(i64 8, ptr %10) #6
  call void @llvm.lifetime.end.p0(i64 8, ptr %9) #6
  call void @llvm.lifetime.end.p0(i64 8, ptr %8) #6
  %164 = load ptr, ptr %4, align 8
  ret ptr %164
}