; Function Attrs: nounwind uwtable
define dso_local ptr @get_baserel_parampathinfo(ptr noundef %0, ptr noundef %1, ptr noundef %2) local_unnamed_addr #0 {
  %4 = icmp eq ptr %2, null
  br i1 %4, label %find_param_path_info.exit, label %5

5:                                                ; preds = %3
  %6 = getelementptr inbounds nuw i8, ptr %1, i64 48
  %7 = load ptr, ptr %6, align 8
  %8 = getelementptr inbounds nuw i8, ptr %7, i64 4
  %.not.i = icmp eq ptr %7, null
  br i1 %.not.i, label %.loopexit, label %.lr.ph.i

.lr.ph.i:                                         ; preds = %5
  %9 = getelementptr inbounds nuw i8, ptr %7, i64 16
  %10 = load i32, ptr %8, align 4
  %11 = icmp sgt i32 %10, 0
  br i1 %11, label %.lr.ph31.i, label %.loopexit

12:                                               ; preds = %.lr.ph31.i
  %indvars.iv.next.i = add nuw nsw i64 %indvars.iv.i, 1
  %13 = load i32, ptr %8, align 4
  %14 = sext i32 %13 to i64
  %15 = icmp slt i64 %indvars.iv.next.i, %14
  br i1 %15, label %.lr.ph31.i, label %.loopexit

.lr.ph31.i:                                       ; preds = %.lr.ph.i, %12
  %indvars.iv.i = phi i64 [ %indvars.iv.next.i, %12 ], [ 0, %.lr.ph.i ]
  %16 = load ptr, ptr %9, align 8
  %17 = getelementptr inbounds nuw %union.ListCell, ptr %16, i64 %indvars.iv.i
  %18 = load ptr, ptr %17, align 8
  %19 = getelementptr inbounds nuw i8, ptr %18, i64 8
  %20 = load ptr, ptr %19, align 8
  %21 = tail call zeroext i1 @bms_equal(ptr noundef %20, ptr noundef nonnull %2) #7
  br i1 %21, label %find_param_path_info.exit, label %12

.loopexit:                                        ; preds = %12, %5, %.lr.ph.i
  %22 = getelementptr inbounds nuw i8, ptr %1, i64 8
  %23 = load ptr, ptr %22, align 8
  %24 = tail call ptr @bms_union(ptr noundef %23, ptr noundef nonnull %2) #7
  %25 = getelementptr inbounds nuw i8, ptr %1, i64 328
  %26 = load ptr, ptr %25, align 8
  %27 = getelementptr inbounds nuw i8, ptr %26, i64 4
  %.not58 = icmp eq ptr %26, null
  br i1 %.not58, label %._crit_edge, label %.lr.ph

.lr.ph:                                           ; preds = %.loopexit
  %28 = getelementptr inbounds nuw i8, ptr %26, i64 16
  %29 = load i32, ptr %27, align 4
  %30 = icmp sgt i32 %29, 0
  br i1 %30, label %.lr.ph77, label %._crit_edge

._crit_edge:                                      ; preds = %44, %.lr.ph, %.loopexit
  %.050.lcssa = phi ptr [ null, %.loopexit ], [ null, %.lr.ph ], [ %.1, %44 ]
  %31 = tail call ptr @generate_join_implied_equalities(ptr noundef %0, ptr noundef %24, ptr noundef nonnull %2, ptr noundef nonnull %1, ptr noundef null) #7
  %32 = tail call ptr @list_concat(ptr noundef %.050.lcssa, ptr noundef %31) #7
  %33 = getelementptr inbounds nuw i8, ptr %32, i64 4
  %.not60 = icmp eq ptr %32, null
  br i1 %.not60, label %._crit_edge83, label %.lr.ph82

.lr.ph82:                                         ; preds = %._crit_edge
  %34 = getelementptr inbounds nuw i8, ptr %32, i64 16
  %35 = load i32, ptr %33, align 4
  %36 = icmp sgt i32 %35, 0
  br i1 %36, label %.lr.ph91, label %._crit_edge83

.lr.ph77:                                         ; preds = %.lr.ph, %44
  %indvars.iv = phi i64 [ %indvars.iv.next, %44 ], [ 0, %.lr.ph ]
  %.0507175 = phi ptr [ %.1, %44 ], [ null, %.lr.ph ]
  %37 = load ptr, ptr %28, align 8
  %38 = getelementptr inbounds nuw %union.ListCell, ptr %37, i64 %indvars.iv
  %39 = load ptr, ptr %38, align 8
  %40 = load ptr, ptr %22, align 8
  %41 = tail call zeroext i1 @join_clause_is_movable_into(ptr noundef %39, ptr noundef %40, ptr noundef %24) #7
  br i1 %41, label %42, label %44

42:                                               ; preds = %.lr.ph77
  %43 = tail call ptr @lappend(ptr noundef %.0507175, ptr noundef %39) #7
  br label %44

44:                                               ; preds = %42, %.lr.ph77
  %.1 = phi ptr [ %43, %42 ], [ %.0507175, %.lr.ph77 ]
  %indvars.iv.next = add nuw nsw i64 %indvars.iv, 1
  %45 = load i32, ptr %27, align 4
  %46 = sext i32 %45 to i64
  %47 = icmp slt i64 %indvars.iv.next, %46
  br i1 %47, label %.lr.ph77, label %._crit_edge

._crit_edge83:                                    ; preds = %.lr.ph91, %.lr.ph82, %._crit_edge
  %.051.lcssa = phi ptr [ null, %._crit_edge ], [ null, %.lr.ph82 ], [ %61, %.lr.ph91 ]
  %48 = tail call double @get_parameterized_baserel_size(ptr noundef %0, ptr noundef nonnull %1, ptr noundef %32) #7
  %49 = tail call noundef ptr @palloc0(i64 noundef 40) #7
  store i32 277, ptr %49, align 4
  %50 = getelementptr inbounds nuw i8, ptr %49, i64 8
  store ptr %2, ptr %50, align 8
  %51 = getelementptr inbounds nuw i8, ptr %49, i64 16
  store double %48, ptr %51, align 8
  %52 = getelementptr inbounds nuw i8, ptr %49, i64 24
  store ptr %32, ptr %52, align 8
  %53 = getelementptr inbounds nuw i8, ptr %49, i64 32
  store ptr %.051.lcssa, ptr %53, align 8
  %54 = load ptr, ptr %6, align 8
  %55 = tail call ptr @lappend(ptr noundef %54, ptr noundef nonnull %49) #7
  store ptr %55, ptr %6, align 8
  br label %find_param_path_info.exit

.lr.ph91:                                         ; preds = %.lr.ph82, %.lr.ph91
  %indvars.iv96 = phi i64 [ %indvars.iv.next97, %.lr.ph91 ], [ 0, %.lr.ph82 ]
  %.0517990 = phi ptr [ %61, %.lr.ph91 ], [ null, %.lr.ph82 ]
  %56 = load ptr, ptr %34, align 8
  %57 = getelementptr inbounds nuw %union.ListCell, ptr %56, i64 %indvars.iv96
  %58 = load ptr, ptr %57, align 8
  %59 = getelementptr inbounds nuw i8, ptr %58, i64 96
  %60 = load i32, ptr %59, align 8
  %61 = tail call ptr @bms_add_member(ptr noundef %.0517990, i32 noundef %60) #7
  %indvars.iv.next97 = add nuw nsw i64 %indvars.iv96, 1
  %62 = load i32, ptr %33, align 4
  %63 = sext i32 %62 to i64
  %64 = icmp slt i64 %indvars.iv.next97, %63
  br i1 %64, label %.lr.ph91, label %._crit_edge83

find_param_path_info.exit:                        ; preds = %.lr.ph31.i, %3, %._crit_edge83
  %.0 = phi ptr [ %49, %._crit_edge83 ], [ null, %3 ], [ %18, %.lr.ph31.i ]
  ret ptr %.0
}